target datalayout = "e-m:e-p270:32:32-p271:32:32-p272:64:64-i64:64-i128:128-f80:128-n8:16:32:64-S128"
target triple = "x86_64-pc-linux-gnu"

%struct._zend_executor_globals = type { %struct._zval_struct, %struct._zval_struct, [32 x ptr], ptr, ptr, %struct._zend_array, %struct._zend_array, ptr, i32, i8, %struct._zval_struct, i32, ptr, ptr, ptr, ptr, ptr, ptr, i64, ptr, ptr, i32, ptr, i32, i64, i32, i32, i32, i8, i8, %struct.zend_atomic_bool_s, %struct.zend_atomic_bool_s, ptr, i64, ptr, ptr, %struct._zend_array, %struct._zend_array, i32, i8, %struct._zval_struct, %struct._zval_struct, %struct._zend_stack, %struct._zend_stack, %struct._zend_stack, ptr, i32, i32, i64, ptr, ptr, ptr, %struct._zend_objects_store, %struct._zend_lazy_objects_store, ptr, ptr, ptr, [3 x %struct._zend_op], ptr, i8, i8, i64, i32, i32, ptr, [16 x %struct._HashTableIterator], ptr, %union._zend_function, %struct._zend_op, %struct._zend_array, i64, %struct.zend_get_gc_buffer, ptr, ptr, ptr, i64, i8, i32, ptr, ptr, i64, %struct._zend_call_stack, i64, i64, %struct._zend_strtod_state, [6 x ptr] }
%struct.zend_atomic_bool_s = type { i8 }
%struct._zval_struct = type { %union._zend_value, %union.anon.9, %union.anon.12 }
%union._zend_value = type { i64 }
%union.anon.9 = type { i32 }
%union.anon.12 = type { i32 }
%struct._zend_stack = type { i32, i32, i32, ptr }
%struct._zend_objects_store = type { ptr, i32, i32, i32 }
%struct._zend_lazy_objects_store = type { %struct._zend_array }
%struct._HashTableIterator = type { ptr, i32, i32 }
%union._zend_function = type { %struct._zend_op_array }
%struct._zend_op_array = type { i8, [3 x i8], i32, ptr, ptr, ptr, i32, i32, ptr, ptr, ptr, ptr, i32, ptr, i32, i32, i32, ptr, ptr, ptr, ptr, ptr, i32, i32, ptr, ptr, ptr, i32, i32, i32, i32, ptr, ptr, [6 x ptr] }
%struct._zend_op = type { ptr, %union._znode_op, %union._znode_op, %union._znode_op, i32, i32, i8, i8, i8, i8 }
%union._znode_op = type { i32 }
%struct._zend_array = type { %struct._zend_refcounted_h, %union.anon.1, i32, %union.anon.2, i32, i32, i32, i32, i64, ptr }
%struct._zend_refcounted_h = type { i32, %union.anon.0 }
%union.anon.0 = type { i32 }
%union.anon.1 = type { i32 }
%union.anon.2 = type { ptr }
%struct.zend_get_gc_buffer = type { ptr, ptr, ptr }
%struct._zend_call_stack = type { ptr, i64 }
%struct._zend_strtod_state = type { [8 x ptr], ptr, ptr }
%struct.zend_type = type { ptr, i32 }
%struct.reflection_object = type { %struct._zval_struct, ptr, ptr, i32, %struct._zend_object }
%struct._zend_object = type { %struct._zend_refcounted_h, i32, i32, ptr, ptr, ptr, [1 x %struct._zval_struct] }
%struct._zend_execute_data = type { ptr, ptr, ptr, ptr, %struct._zval_struct, ptr, ptr, ptr, ptr }
%struct._type_reference = type { %struct.zend_type, i8 }
%struct.zend_type_list = type { i32, [1 x %struct.zend_type] }

@reflection_exception_ptr = dso_local global ptr null, align 8
@executor_globals = external global %struct._zend_executor_globals, align 8
@.str.10 = private unnamed_addr constant [57 x i8] c"Internal error: Failed to retrieve the reflection object\00", align 1

; Function Attrs: nounwind uwtable
define internal void @append_type(ptr noundef %0, ptr %1, i32 %2) #0 {
  %4 = alloca %struct.zend_type, align 8
  %5 = alloca ptr, align 8
  %6 = alloca %struct._zval_struct, align 8
  %7 = getelementptr inbounds nuw { ptr, i32 }, ptr %4, i32 0, i32 0
  store ptr %1, ptr %7, align 8
  %8 = getelementptr inbounds nuw { ptr, i32 }, ptr %4, i32 0, i32 1
  store i32 %2, ptr %8, align 8
  store ptr %0, ptr %5, align 8, !tbaa !9
  call void @llvm.lifetime.start.p0(i64 16, ptr %6) #14
  %9 = getelementptr inbounds nuw %struct.zend_type, ptr %4, i32 0, i32 1
  %10 = load i32, ptr %9, align 8, !tbaa !184
  %11 = and i32 %10, 2097152
  %12 = icmp ne i32 %11, 0
  br i1 %12, label %13, label %17

13:                                               ; preds = %3
  %14 = getelementptr inbounds nuw %struct.zend_type, ptr %4, i32 0, i32 1
  %15 = load i32, ptr %14, align 8, !tbaa !184
  %16 = and i32 %15, -2097153
  store i32 %16, ptr %14, align 8, !tbaa !184
  br label %17

17:                                               ; preds = %13, %3
  %18 = getelementptr inbounds nuw { ptr, i32 }, ptr %4, i32 0, i32 0
  %19 = load ptr, ptr %18, align 8
  %20 = getelementptr inbounds nuw { ptr, i32 }, ptr %4, i32 0, i32 1
  %21 = load i32, ptr %20, align 8
  call void @reflection_type_factory(ptr %19, i32 %21, ptr noundef %6, i1 noundef zeroext false)
  %22 = load ptr, ptr %5, align 8, !tbaa !9
  %23 = getelementptr inbounds nuw %struct._zval_struct, ptr %22, i32 0, i32 0
  %24 = load ptr, ptr %23, align 8, !tbaa !29
  %25 = call ptr @zend_hash_next_index_insert(ptr noundef %24, ptr noundef %6)
  call void @llvm.lifetime.end.p0(i64 16, ptr %6) #14
  ret void
}

; Function Attrs: inlinehint nounwind uwtable
define internal ptr @reflection_object_from_obj(ptr noundef %0) #3 {
  %2 = alloca ptr, align 8
  store ptr %0, ptr %2, align 8, !tbaa !39
  %3 = load ptr, ptr %2, align 8, !tbaa !39
  %4 = getelementptr inbounds i8, ptr %3, i64 -40
  ret ptr %4
}

; Function Attrs: nounwind uwtable
define hidden void @zim_ReflectionIntersectionType_getTypes(ptr noundef %0, ptr noundef %1) #0 {
  %3 = alloca ptr, align 8
  %4 = alloca ptr, align 8
  %5 = alloca ptr, align 8
  %6 = alloca ptr, align 8
  %7 = alloca ptr, align 8
  %8 = alloca i32, align 4
  %9 = alloca ptr, align 8
  %10 = alloca ptr, align 8
  %11 = alloca ptr, align 8
  %12 = alloca ptr, align 8
  store ptr %0, ptr %3, align 8, !tbaa !47
  store ptr %1, ptr %4, align 8, !tbaa !9
  call void @llvm.lifetime.start.p0(i64 8, ptr %5) #14
  call void @llvm.lifetime.start.p0(i64 8, ptr %6) #14
  call void @llvm.lifetime.start.p0(i64 8, ptr %7) #14
  br label %13

13:                                               ; preds = %2
  %14 = load ptr, ptr %3, align 8, !tbaa !47
  %15 = getelementptr inbounds nuw %struct._zend_execute_data, ptr %14, i32 0, i32 4
  %16 = getelementptr inbounds nuw %struct._zval_struct, ptr %15, i32 0, i32 2
  %17 = load i32, ptr %16, align 4, !tbaa !29
  %18 = icmp ne i32 %17, 0
  %19 = xor i1 %18, true
  %20 = xor i1 %19, true
  %21 = zext i1 %20 to i32
  %22 = sext i32 %21 to i64
  %23 = call i64 @llvm.expect.i64(i64 %22, i64 0)
  %24 = icmp ne i64 %23, 0
  br i1 %24, label %25, label %26

25:                                               ; preds = %13
  call void @zend_wrong_parameters_none_error()
  store i32 1, ptr %8, align 4
  br label %119

26:                                               ; preds = %13
  br label %27

27:                                               ; preds = %26
  br label %28

28:                                               ; preds = %27
  br label %29

29:                                               ; preds = %28
  br label %30

30:                                               ; preds = %29
  %31 = load ptr, ptr %3, align 8, !tbaa !47
  %32 = getelementptr inbounds nuw %struct._zend_execute_data, ptr %31, i32 0, i32 4
  %33 = getelementptr inbounds nuw %struct._zval_struct, ptr %32, i32 0, i32 0
  %34 = load ptr, ptr %33, align 8, !tbaa !29
  %35 = call ptr @reflection_object_from_obj(ptr noundef %34)
  store ptr %35, ptr %5, align 8, !tbaa !30
  %36 = load ptr, ptr %5, align 8, !tbaa !30
  %37 = getelementptr inbounds nuw %struct.reflection_object, ptr %36, i32 0, i32 1
  %38 = load ptr, ptr %37, align 8, !tbaa !31
  %39 = icmp eq ptr %38, null
  br i1 %39, label %40, label %61

40:                                               ; preds = %30
  %41 = load ptr, ptr getelementptr inbounds nuw (%struct._zend_executor_globals, ptr @executor_globals, i32 0, i32 54), align 8, !tbaa !49
  %42 = icmp ne ptr %41, null
  br i1 %42, label %43, label %55

43:                                               ; preds = %40
  %44 = load ptr, ptr getelementptr inbounds nuw (%struct._zend_executor_globals, ptr @executor_globals, i32 0, i32 54), align 8, !tbaa !49
  %45 = getelementptr inbounds nuw %struct._zend_object, ptr %44, i32 0, i32 3
  %46 = load ptr, ptr %45, align 8, !tbaa !41
  %47 = load ptr, ptr @reflection_exception_ptr, align 8, !tbaa !4
  %48 = icmp eq ptr %46, %47
  br i1 %48, label %49, label %55

49:                                               ; preds = %43
  br label %50

50:                                               ; preds = %49
  %51 = load ptr, ptr getelementptr inbounds nuw (%struct._zend_executor_globals, ptr @executor_globals, i32 0, i32 54), align 8, !tbaa !49
  %52 = icmp ne ptr %51, null
  call void @llvm.assume(i1 %52)
  store i32 1, ptr %8, align 4
  br label %119

53:                                               ; No predecessors!
  br label %54

54:                                               ; preds = %53
  br label %55

55:                                               ; preds = %54, %43, %40
  call void (ptr, ptr, ...) @zend_throw_error(ptr noundef null, ptr noundef @.str.10)
  br label %56

56:                                               ; preds = %55
  %57 = load ptr, ptr getelementptr inbounds nuw (%struct._zend_executor_globals, ptr @executor_globals, i32 0, i32 54), align 8, !tbaa !49
  %58 = icmp ne ptr %57, null
  call void @llvm.assume(i1 %58)
  store i32 1, ptr %8, align 4
  br label %119

59:                                               ; No predecessors!
  br label %60

60:                                               ; preds = %59
  br label %61

61:                                               ; preds = %60, %30
  br label %62

62:                                               ; preds = %61
  br label %63

63:                                               ; preds = %62
  %64 = load ptr, ptr %5, align 8, !tbaa !30
  %65 = getelementptr inbounds nuw %struct.reflection_object, ptr %64, i32 0, i32 1
  %66 = load ptr, ptr %65, align 8, !tbaa !31
  store ptr %66, ptr %6, align 8, !tbaa !185
  br label %67

67:                                               ; preds = %63
  br label %68

68:                                               ; preds = %67
  %69 = load ptr, ptr %6, align 8, !tbaa !185
  %70 = getelementptr inbounds nuw %struct._type_reference, ptr %69, i32 0, i32 0
  %71 = getelementptr inbounds nuw %struct.zend_type, ptr %70, i32 0, i32 1
  %72 = load i32, ptr %71, align 8, !tbaa !194
  %73 = and i32 %72, 4194304
  %74 = icmp ne i32 %73, 0
  call void @llvm.assume(i1 %74)
  br label %75

75:                                               ; preds = %68
  call void @llvm.lifetime.start.p0(i64 8, ptr %9) #14
  %76 = call ptr @_zend_new_array_0()
  store ptr %76, ptr %9, align 8, !tbaa !73
  call void @llvm.lifetime.start.p0(i64 8, ptr %10) #14
  %77 = load ptr, ptr %4, align 8, !tbaa !9
  store ptr %77, ptr %10, align 8, !tbaa !9
  %78 = load ptr, ptr %9, align 8, !tbaa !73
  %79 = load ptr, ptr %10, align 8, !tbaa !9
  %80 = getelementptr inbounds nuw %struct._zval_struct, ptr %79, i32 0, i32 0
  store ptr %78, ptr %80, align 8, !tbaa !29
  %81 = load ptr, ptr %10, align 8, !tbaa !9
  %82 = getelementptr inbounds nuw %struct._zval_struct, ptr %81, i32 0, i32 1
  store i32 775, ptr %82, align 8, !tbaa !29
  call void @llvm.lifetime.end.p0(i64 8, ptr %10) #14
  call void @llvm.lifetime.end.p0(i64 8, ptr %9) #14
  br label %83

83:                                               ; preds = %75
  br label %84

84:                                               ; preds = %83
  br label %85

85:                                               ; preds = %84
  call void @llvm.lifetime.start.p0(i64 8, ptr %11) #14
  %86 = load ptr, ptr %6, align 8, !tbaa !185
  %87 = getelementptr inbounds nuw %struct._type_reference, ptr %86, i32 0, i32 0
  %88 = getelementptr inbounds nuw %struct.zend_type, ptr %87, i32 0, i32 0
  %89 = load ptr, ptr %88, align 8, !tbaa !195
  %90 = getelementptr inbounds nuw %struct.zend_type_list, ptr %89, i32 0, i32 1
  %91 = getelementptr inbounds [1 x %struct.zend_type], ptr %90, i64 0, i64 0
  store ptr %91, ptr %11, align 8, !tbaa !30
  call void @llvm.lifetime.start.p0(i64 8, ptr %12) #14
  %92 = load ptr, ptr %11, align 8, !tbaa !30
  %93 = load ptr, ptr %6, align 8, !tbaa !185
  %94 = getelementptr inbounds nuw %struct._type_reference, ptr %93, i32 0, i32 0
  %95 = getelementptr inbounds nuw %struct.zend_type, ptr %94, i32 0, i32 0
  %96 = load ptr, ptr %95, align 8, !tbaa !195
  %97 = getelementptr inbounds nuw %struct.zend_type_list, ptr %96, i32 0, i32 0
  %98 = load i32, ptr %97, align 8, !tbaa !196
  %99 = zext i32 %98 to i64
  %100 = getelementptr inbounds nuw %struct.zend_type, ptr %92, i64 %99
  store ptr %100, ptr %12, align 8, !tbaa !30
  br label %101

101:                                              ; preds = %113, %85
  %102 = load ptr, ptr %11, align 8, !tbaa !30
  %103 = load ptr, ptr %12, align 8, !tbaa !30
  %104 = icmp ult ptr %102, %103
  br i1 %104, label %105, label %116

105:                                              ; preds = %101
  %106 = load ptr, ptr %11, align 8, !tbaa !30
  store ptr %106, ptr %7, align 8, !tbaa !30
  %107 = load ptr, ptr %4, align 8, !tbaa !9
  %108 = load ptr, ptr %7, align 8, !tbaa !30
  %109 = getelementptr inbounds nuw { ptr, i32 }, ptr %108, i32 0, i32 0
  %110 = load ptr, ptr %109, align 8
  %111 = getelementptr inbounds nuw { ptr, i32 }, ptr %108, i32 0, i32 1
  %112 = load i32, ptr %111, align 8
  call void @append_type(ptr noundef %107, ptr %110, i32 %112)
  br label %113

113:                                              ; preds = %105
  %114 = load ptr, ptr %11, align 8, !tbaa !30
  %115 = getelementptr inbounds nuw %struct.zend_type, ptr %114, i32 1
  store ptr %115, ptr %11, align 8, !tbaa !30
  br label %101

116:                                              ; preds = %101
  call void @llvm.lifetime.end.p0(i64 8, ptr %12) #14
  call void @llvm.lifetime.end.p0(i64 8, ptr %11) #14
  br label %117

117:                                              ; preds = %116
  br label %118

118:                                              ; preds = %117
  store i32 0, ptr %8, align 4
  br label %119

119:                                              ; preds = %118, %56, %50, %25
  call void @llvm.lifetime.end.p0(i64 8, ptr %7) #14
  call void @llvm.lifetime.end.p0(i64 8, ptr %6) #14
  call void @llvm.lifetime.end.p0(i64 8, ptr %5) #14
  %120 = load i32, ptr %8, align 4
  switch i32 %120, label %122 [
    i32 0, label %121
    i32 1, label %121
  ]

121:                                              ; preds = %119, %119
  ret void

122:                                              ; preds = %119
  unreachable
}