; Function Attrs: nounwind uwtable
define hidden void @zim_ReflectionIntersectionType_getTypes(ptr noundef readonly captures(none) %0, ptr noundef captures(none) %1) #0 {
  %3 = alloca %struct._zval_struct, align 8
  %4 = getelementptr inbounds nuw i8, ptr %0, i64 44
  %5 = load i32, ptr %4, align 4, !tbaa !26
  %.not = icmp eq i32 %5, 0
  br i1 %.not, label %7, label %6, !prof !70

6:                                                ; preds = %2
  tail call void @zend_wrong_parameters_none_error() #13
  br label %.loopexit

7:                                                ; preds = %2
  %8 = getelementptr inbounds nuw i8, ptr %0, i64 32
  %9 = load ptr, ptr %8, align 8, !tbaa !26
  %10 = getelementptr inbounds i8, ptr %9, i64 -24
  %11 = load ptr, ptr %10, align 8, !tbaa !27
  %12 = icmp eq ptr %11, null
  br i1 %12, label %13, label %23

13:                                               ; preds = %7
  %14 = load ptr, ptr getelementptr inbounds nuw (i8, ptr @executor_globals, i64 960), align 8, !tbaa !39
  %.not20 = icmp eq ptr %14, null
  br i1 %.not20, label %20, label %15

15:                                               ; preds = %13
  %16 = getelementptr inbounds nuw i8, ptr %14, i64 16
  %17 = load ptr, ptr %16, align 8, !tbaa !34
  %18 = load ptr, ptr @reflection_exception_ptr, align 8, !tbaa !38
  %19 = icmp eq ptr %17, %18
  br i1 %19, label %.loopexit, label %20

20:                                               ; preds = %15, %13
  tail call void (ptr, ptr, ...) @zend_throw_error(ptr noundef null, ptr noundef nonnull @.str.10) #13
  %21 = load ptr, ptr getelementptr inbounds nuw (i8, ptr @executor_globals, i64 960), align 8, !tbaa !39
  %22 = icmp ne ptr %21, null
  tail call void @llvm.assume(i1 %22)
  br label %.loopexit

23:                                               ; preds = %7
  %24 = getelementptr inbounds nuw i8, ptr %11, i64 8
  %25 = load i32, ptr %24, align 8, !tbaa !184
  %26 = and i32 %25, 4194304
  %27 = icmp ne i32 %26, 0
  tail call void @llvm.assume(i1 %27)
  %28 = tail call ptr @_zend_new_array_0() #13
  store ptr %28, ptr %1, align 8, !tbaa !26
  %29 = getelementptr inbounds nuw i8, ptr %1, i64 8
  store i32 775, ptr %29, align 8, !tbaa !26
  %30 = load ptr, ptr %11, align 8, !tbaa !185
  %31 = load i32, ptr %30, align 8, !tbaa !186
  %32 = zext i32 %31 to i64
  %.idx = shl nuw nsw i64 %32, 4
  %.add = or disjoint i64 %.idx, 8
  %.ptr22 = getelementptr inbounds nuw i8, ptr %30, i64 %.add
  %.not23 = icmp eq i32 %31, 0
  br i1 %.not23, label %.loopexit, label %.lr.ph.preheader

.lr.ph.preheader:                                 ; preds = %23
  %.ptr = getelementptr inbounds nuw i8, ptr %30, i64 8
  br label %.lr.ph

.lr.ph:                                           ; preds = %.lr.ph.preheader, %.lr.ph
  %.021 = phi ptr [ %39, %.lr.ph ], [ %.ptr, %.lr.ph.preheader ]
  %33 = load ptr, ptr %.021, align 8
  %34 = getelementptr inbounds nuw i8, ptr %.021, i64 8
  %35 = load i32, ptr %34, align 8
  call void @llvm.lifetime.start.p0(i64 16, ptr nonnull %3) #13
  %36 = and i32 %35, -2097153
  call fastcc void @reflection_type_factory(ptr %33, i32 %36, ptr noundef nonnull %3, i1 noundef zeroext false)
  %37 = load ptr, ptr %1, align 8, !tbaa !26
  %38 = call ptr @zend_hash_next_index_insert(ptr noundef %37, ptr noundef nonnull %3) #13
  call void @llvm.lifetime.end.p0(i64 16, ptr nonnull %3) #13
  %39 = getelementptr inbounds nuw i8, ptr %.021, i64 16
  %40 = icmp ult ptr %39, %.ptr22
  br i1 %40, label %.lr.ph, label %.loopexit

.loopexit:                                        ; preds = %.lr.ph, %23, %15, %20, %6
  ret void
}